target datalayout = "e-m:e-p270:32:32-p271:32:32-p272:64:64-i64:64-i128:128-f80:128-n8:16:32:64-S128"
target triple = "x86_64-pc-linux-gnu"

%struct.jpeg_error_mgr = type { ptr, ptr, ptr, ptr, ptr, i32, %union.anon, i32, i64, ptr, i32, ptr, i32, i32 }
%union.anon = type { [8 x i32], [48 x i8] }
%struct.jpeg_memory_mgr = type { ptr, ptr, ptr, ptr, ptr, ptr, ptr, ptr, ptr, ptr, ptr, i64, i64 }
%struct.jpeg_decompress_struct = type { ptr, ptr, ptr, ptr, i32, i32, ptr, i32, i32, i32, i32, i32, i32, i32, double, i32, i32, i32, i32, i32, i32, i32, i32, i32, i32, i32, i32, i32, i32, i32, i32, i32, i32, ptr, i32, i32, i32, i32, i32, ptr, [4 x ptr], [4 x ptr], [4 x ptr], i32, ptr, i32, i32, [16 x i8], [16 x i8], [16 x i8], i32, i32, i8, i8, i8, i16, i16, i32, i8, i32, ptr, i32, i32, i32, i32, ptr, i32, [4 x ptr], i32, i32, i32, [10 x i32], i32, i32, i32, i32, i32, ptr, ptr, ptr, ptr, ptr, ptr, ptr, ptr, ptr, ptr, ptr }
%struct.my_error_mgr = type { %struct.jpeg_error_mgr, [1 x %struct.__jmp_buf_tag] }
%struct.__jmp_buf_tag = type { [8 x i64], i32, %struct.__sigset_t }
%struct.__sigset_t = type { [16 x i64] }

@stderr = external global ptr, align 8
@.str.12 = private unnamed_addr constant [3 x i8] c"wb\00", align 1
@.str.13 = private unnamed_addr constant [3 x i8] c"rb\00", align 1
@.str.14 = private unnamed_addr constant [15 x i8] c"can't open %s\0A\00", align 1
@.str.15 = private unnamed_addr constant [13 x i8] c"P6\0A%u %u\0A%d\0A\00", align 1

; Function Attrs: nounwind uwtable
define internal i32 @do_read_JPEG_file(ptr noundef %0, ptr noundef %1, ptr noundef %2) #0 {
  %4 = alloca i32, align 4
  %5 = alloca ptr, align 8
  %6 = alloca ptr, align 8
  %7 = alloca ptr, align 8
  %8 = alloca %struct.my_error_mgr, align 8
  %9 = alloca ptr, align 8
  %10 = alloca ptr, align 8
  %11 = alloca ptr, align 8
  %12 = alloca ptr, align 8
  %13 = alloca i32, align 4
  %14 = alloca i32, align 4
  %15 = alloca i32, align 4
  %16 = alloca i32, align 4
  store ptr %0, ptr %5, align 8, !tbaa !63
  store ptr %1, ptr %6, align 8, !tbaa !11
  store ptr %2, ptr %7, align 8, !tbaa !11
  call void @llvm.lifetime.start.p0(i64 368, ptr %8) #7
  call void @llvm.lifetime.start.p0(i64 8, ptr %9) #7
  call void @llvm.lifetime.start.p0(i64 8, ptr %10) #7
  call void @llvm.lifetime.start.p0(i64 8, ptr %11) #7
  store ptr null, ptr %11, align 8, !tbaa !8
  call void @llvm.lifetime.start.p0(i64 8, ptr %12) #7
  store ptr null, ptr %12, align 8, !tbaa !18
  call void @llvm.lifetime.start.p0(i64 4, ptr %13) #7
  call void @llvm.lifetime.start.p0(i64 4, ptr %14) #7
  call void @llvm.lifetime.start.p0(i64 4, ptr %15) #7
  store i32 1, ptr %15, align 4, !tbaa !4
  %17 = load ptr, ptr %6, align 8, !tbaa !11
  %18 = call noalias ptr @fopen(ptr noundef %17, ptr noundef @.str.13)
  store ptr %18, ptr %9, align 8, !tbaa !16
  %19 = icmp eq ptr %18, null
  br i1 %19, label %20, label %24

20:                                               ; preds = %3
  %21 = load ptr, ptr @stderr, align 8, !tbaa !16
  %22 = load ptr, ptr %6, align 8, !tbaa !11
  %23 = call i32 (ptr, ptr, ...) @fprintf(ptr noundef %21, ptr noundef @.str.14, ptr noundef %22) #7
  store i32 0, ptr %4, align 4
  store i32 1, ptr %16, align 4
  br label %199

24:                                               ; preds = %3
  %25 = load ptr, ptr %7, align 8, !tbaa !11
  %26 = call noalias ptr @fopen(ptr noundef %25, ptr noundef @.str.12)
  store ptr %26, ptr %10, align 8, !tbaa !16
  %27 = icmp eq ptr %26, null
  br i1 %27, label %28, label %34

28:                                               ; preds = %24
  %29 = load ptr, ptr @stderr, align 8, !tbaa !16
  %30 = load ptr, ptr %7, align 8, !tbaa !11
  %31 = call i32 (ptr, ptr, ...) @fprintf(ptr noundef %29, ptr noundef @.str.14, ptr noundef %30) #7
  %32 = load ptr, ptr %9, align 8, !tbaa !16
  %33 = call i32 @fclose(ptr noundef %32)
  store i32 0, ptr %4, align 4
  store i32 1, ptr %16, align 4
  br label %199

34:                                               ; preds = %24
  %35 = getelementptr inbounds nuw %struct.my_error_mgr, ptr %8, i32 0, i32 0
  %36 = call ptr @jpeg_std_error(ptr noundef %35)
  %37 = load ptr, ptr %5, align 8, !tbaa !63
  %38 = getelementptr inbounds nuw %struct.jpeg_decompress_struct, ptr %37, i32 0, i32 0
  store ptr %36, ptr %38, align 8, !tbaa !65
  %39 = getelementptr inbounds nuw %struct.my_error_mgr, ptr %8, i32 0, i32 0
  %40 = getelementptr inbounds nuw %struct.jpeg_error_mgr, ptr %39, i32 0, i32 0
  store ptr @my_error_exit, ptr %40, align 8, !tbaa !81
  %41 = getelementptr inbounds nuw %struct.my_error_mgr, ptr %8, i32 0, i32 1
  %42 = getelementptr inbounds [1 x %struct.__jmp_buf_tag], ptr %41, i64 0, i64 0
  %43 = call i32 @_setjmp(ptr noundef %42) #10
  %44 = icmp ne i32 %43, 0
  br i1 %44, label %45, label %51

45:                                               ; preds = %34
  %46 = load ptr, ptr %5, align 8, !tbaa !63
  call void @jpeg_destroy_decompress(ptr noundef %46)
  %47 = load ptr, ptr %9, align 8, !tbaa !16
  %48 = call i32 @fclose(ptr noundef %47)
  %49 = load ptr, ptr %10, align 8, !tbaa !16
  %50 = call i32 @fclose(ptr noundef %49)
  store i32 0, ptr %4, align 4
  store i32 1, ptr %16, align 4
  br label %199

51:                                               ; preds = %34
  %52 = load ptr, ptr %5, align 8, !tbaa !63
  call void @jpeg_CreateDecompress(ptr noundef %52, i32 noundef 62, i64 noundef 632)
  %53 = load ptr, ptr %5, align 8, !tbaa !63
  %54 = load ptr, ptr %9, align 8, !tbaa !16
  call void @jpeg_stdio_src(ptr noundef %53, ptr noundef %54)
  %55 = load ptr, ptr %5, align 8, !tbaa !63
  %56 = call i32 @jpeg_read_header(ptr noundef %55, i32 noundef 1)
  %57 = load ptr, ptr %10, align 8, !tbaa !16
  %58 = load ptr, ptr %5, align 8, !tbaa !63
  %59 = getelementptr inbounds nuw %struct.jpeg_decompress_struct, ptr %58, i32 0, i32 7
  %60 = load i32, ptr %59, align 8, !tbaa !83
  %61 = load ptr, ptr %5, align 8, !tbaa !63
  %62 = getelementptr inbounds nuw %struct.jpeg_decompress_struct, ptr %61, i32 0, i32 8
  %63 = load i32, ptr %62, align 4, !tbaa !84
  %64 = load ptr, ptr %5, align 8, !tbaa !63
  %65 = getelementptr inbounds nuw %struct.jpeg_decompress_struct, ptr %64, i32 0, i32 43
  %66 = load i32, ptr %65, align 8, !tbaa !85
  %67 = icmp eq i32 %66, 12
  %68 = select i1 %67, i32 4095, i32 255
  %69 = call i32 (ptr, ptr, ...) @fprintf(ptr noundef %57, ptr noundef @.str.15, i32 noundef %60, i32 noundef %63, i32 noundef %68) #7
  %70 = load ptr, ptr %5, align 8, !tbaa !63
  %71 = call i32 @jpeg_start_decompress(ptr noundef %70)
  %72 = load ptr, ptr %5, align 8, !tbaa !63
  %73 = getelementptr inbounds nuw %struct.jpeg_decompress_struct, ptr %72, i32 0, i32 27
  %74 = load i32, ptr %73, align 8, !tbaa !86
  %75 = load ptr, ptr %5, align 8, !tbaa !63
  %76 = getelementptr inbounds nuw %struct.jpeg_decompress_struct, ptr %75, i32 0, i32 30
  %77 = load i32, ptr %76, align 4, !tbaa !87
  %78 = mul i32 %74, %77
  store i32 %78, ptr %14, align 4, !tbaa !4
  %79 = load ptr, ptr %5, align 8, !tbaa !63
  %80 = getelementptr inbounds nuw %struct.jpeg_decompress_struct, ptr %79, i32 0, i32 43
  %81 = load i32, ptr %80, align 8, !tbaa !85
  %82 = icmp eq i32 %81, 12
  br i1 %82, label %83, label %92

83:                                               ; preds = %51
  %84 = load ptr, ptr %5, align 8, !tbaa !63
  %85 = getelementptr inbounds nuw %struct.jpeg_decompress_struct, ptr %84, i32 0, i32 1
  %86 = load ptr, ptr %85, align 8, !tbaa !88
  %87 = getelementptr inbounds nuw %struct.jpeg_memory_mgr, ptr %86, i32 0, i32 2
  %88 = load ptr, ptr %87, align 8, !tbaa !51
  %89 = load ptr, ptr %5, align 8, !tbaa !63
  %90 = load i32, ptr %14, align 4, !tbaa !4
  %91 = call ptr %88(ptr noundef %89, i32 noundef 1, i32 noundef %90, i32 noundef 1)
  store ptr %91, ptr %12, align 8, !tbaa !18
  br label %101

92:                                               ; preds = %51
  %93 = load ptr, ptr %5, align 8, !tbaa !63
  %94 = getelementptr inbounds nuw %struct.jpeg_decompress_struct, ptr %93, i32 0, i32 1
  %95 = load ptr, ptr %94, align 8, !tbaa !88
  %96 = getelementptr inbounds nuw %struct.jpeg_memory_mgr, ptr %95, i32 0, i32 2
  %97 = load ptr, ptr %96, align 8, !tbaa !51
  %98 = load ptr, ptr %5, align 8, !tbaa !63
  %99 = load i32, ptr %14, align 4, !tbaa !4
  %100 = call ptr %97(ptr noundef %98, i32 noundef 1, i32 noundef %99, i32 noundef 1)
  store ptr %100, ptr %11, align 8, !tbaa !8
  br label %101

101:                                              ; preds = %92, %83
  %102 = load ptr, ptr %5, align 8, !tbaa !63
  %103 = getelementptr inbounds nuw %struct.jpeg_decompress_struct, ptr %102, i32 0, i32 43
  %104 = load i32, ptr %103, align 8, !tbaa !85
  %105 = icmp eq i32 %104, 12
  br i1 %105, label %106, label %170

106:                                              ; preds = %101
  br label %107

107:                                              ; preds = %160, %106
  %108 = load ptr, ptr %5, align 8, !tbaa !63
  %109 = getelementptr inbounds nuw %struct.jpeg_decompress_struct, ptr %108, i32 0, i32 34
  %110 = load i32, ptr %109, align 8, !tbaa !89
  %111 = load ptr, ptr %5, align 8, !tbaa !63
  %112 = getelementptr inbounds nuw %struct.jpeg_decompress_struct, ptr %111, i32 0, i32 28
  %113 = load i32, ptr %112, align 4, !tbaa !90
  %114 = icmp ult i32 %110, %113
  br i1 %114, label %115, label %169

115:                                              ; preds = %107
  %116 = load ptr, ptr %5, align 8, !tbaa !63
  %117 = load ptr, ptr %12, align 8, !tbaa !18
  %118 = call i32 @jpeg12_read_scanlines(ptr noundef %116, ptr noundef %117, i32 noundef 1)
  %119 = load i8, ptr %15, align 4, !tbaa !13
  %120 = sext i8 %119 to i32
  %121 = icmp eq i32 %120, 1
  br i1 %121, label %122, label %160

122:                                              ; preds = %115
  store i32 0, ptr %13, align 4, !tbaa !4
  br label %123

123:                                              ; preds = %156, %122
  %124 = load i32, ptr %13, align 4, !tbaa !4
  %125 = load i32, ptr %14, align 4, !tbaa !4
  %126 = icmp slt i32 %124, %125
  br i1 %126, label %127, label %159

127:                                              ; preds = %123
  %128 = load ptr, ptr %12, align 8, !tbaa !18
  %129 = getelementptr inbounds ptr, ptr %128, i64 0
  %130 = load ptr, ptr %129, align 8, !tbaa !53
  %131 = load i32, ptr %13, align 4, !tbaa !4
  %132 = sext i32 %131 to i64
  %133 = getelementptr inbounds i16, ptr %130, i64 %132
  %134 = load i16, ptr %133, align 2, !tbaa !55
  %135 = sext i16 %134 to i32
  %136 = and i32 %135, 255
  %137 = shl i32 %136, 8
  %138 = load ptr, ptr %12, align 8, !tbaa !18
  %139 = getelementptr inbounds ptr, ptr %138, i64 0
  %140 = load ptr, ptr %139, align 8, !tbaa !53
  %141 = load i32, ptr %13, align 4, !tbaa !4
  %142 = sext i32 %141 to i64
  %143 = getelementptr inbounds i16, ptr %140, i64 %142
  %144 = load i16, ptr %143, align 2, !tbaa !55
  %145 = sext i16 %144 to i32
  %146 = ashr i32 %145, 8
  %147 = and i32 %146, 255
  %148 = or i32 %137, %147
  %149 = trunc i32 %148 to i16
  %150 = load ptr, ptr %12, align 8, !tbaa !18
  %151 = getelementptr inbounds ptr, ptr %150, i64 0
  %152 = load ptr, ptr %151, align 8, !tbaa !53
  %153 = load i32, ptr %13, align 4, !tbaa !4
  %154 = sext i32 %153 to i64
  %155 = getelementptr inbounds i16, ptr %152, i64 %154
  store i16 %149, ptr %155, align 2, !tbaa !55
  br label %156

156:                                              ; preds = %127
  %157 = load i32, ptr %13, align 4, !tbaa !4
  %158 = add nsw i32 %157, 1
  store i32 %158, ptr %13, align 4, !tbaa !4
  br label %123, !llvm.loop !91

159:                                              ; preds = %123
  br label %160

160:                                              ; preds = %159, %115
  %161 = load ptr, ptr %12, align 8, !tbaa !18
  %162 = getelementptr inbounds ptr, ptr %161, i64 0
  %163 = load ptr, ptr %162, align 8, !tbaa !53
  %164 = load i32, ptr %14, align 4, !tbaa !4
  %165 = sext i32 %164 to i64
  %166 = mul i64 %165, 2
  %167 = load ptr, ptr %10, align 8, !tbaa !16
  %168 = call i64 @fwrite(ptr noundef %163, i64 noundef 1, i64 noundef %166, ptr noundef %167)
  br label %107, !llvm.loop !92

169:                                              ; preds = %107
  br label %191

170:                                              ; preds = %101
  br label %171

171:                                              ; preds = %179, %170
  %172 = load ptr, ptr %5, align 8, !tbaa !63
  %173 = getelementptr inbounds nuw %struct.jpeg_decompress_struct, ptr %172, i32 0, i32 34
  %174 = load i32, ptr %173, align 8, !tbaa !89
  %175 = load ptr, ptr %5, align 8, !tbaa !63
  %176 = getelementptr inbounds nuw %struct.jpeg_decompress_struct, ptr %175, i32 0, i32 28
  %177 = load i32, ptr %176, align 4, !tbaa !90
  %178 = icmp ult i32 %174, %177
  br i1 %178, label %179, label %190

179:                                              ; preds = %171
  %180 = load ptr, ptr %5, align 8, !tbaa !63
  %181 = load ptr, ptr %11, align 8, !tbaa !8
  %182 = call i32 @jpeg_read_scanlines(ptr noundef %180, ptr noundef %181, i32 noundef 1)
  %183 = load ptr, ptr %11, align 8, !tbaa !8
  %184 = getelementptr inbounds ptr, ptr %183, i64 0
  %185 = load ptr, ptr %184, align 8, !tbaa !11
  %186 = load i32, ptr %14, align 4, !tbaa !4
  %187 = sext i32 %186 to i64
  %188 = load ptr, ptr %10, align 8, !tbaa !16
  %189 = call i64 @fwrite(ptr noundef %185, i64 noundef 1, i64 noundef %187, ptr noundef %188)
  br label %171, !llvm.loop !93

190:                                              ; preds = %171
  br label %191

191:                                              ; preds = %190, %169
  %192 = load ptr, ptr %5, align 8, !tbaa !63
  %193 = call i32 @jpeg_finish_decompress(ptr noundef %192)
  %194 = load ptr, ptr %5, align 8, !tbaa !63
  call void @jpeg_destroy_decompress(ptr noundef %194)
  %195 = load ptr, ptr %9, align 8, !tbaa !16
  %196 = call i32 @fclose(ptr noundef %195)
  %197 = load ptr, ptr %10, align 8, !tbaa !16
  %198 = call i32 @fclose(ptr noundef %197)
  store i32 1, ptr %4, align 4
  store i32 1, ptr %16, align 4
  br label %199

199:                                              ; preds = %191, %45, %28, %20
  call void @llvm.lifetime.end.p0(i64 4, ptr %15) #7
  call void @llvm.lifetime.end.p0(i64 4, ptr %14) #7
  call void @llvm.lifetime.end.p0(i64 4, ptr %13) #7
  call void @llvm.lifetime.end.p0(i64 8, ptr %12) #7
  call void @llvm.lifetime.end.p0(i64 8, ptr %11) #7
  call void @llvm.lifetime.end.p0(i64 8, ptr %10) #7
  call void @llvm.lifetime.end.p0(i64 8, ptr %9) #7
  call void @llvm.lifetime.end.p0(i64 368, ptr %8) #7
  %200 = load i32, ptr %4, align 4
  ret i32 %200
}