; Function Attrs: nounwind uwtable
define internal fastcc void @do_read_JPEG_file(ptr noundef nonnull %0, ptr noundef %1, ptr noundef %2) unnamed_addr #0 {
  %4 = alloca %struct.my_error_mgr, align 8
  call void @llvm.lifetime.start.p0(i64 368, ptr nonnull %4) #11
  %5 = call noalias ptr @fopen(ptr noundef %1, ptr noundef nonnull @.str.13)
  %6 = icmp eq ptr %5, null
  br i1 %6, label %7, label %10

7:                                                ; preds = %3
  %8 = load ptr, ptr @stderr, align 8, !tbaa !58
  %9 = call i32 (ptr, ptr, ...) @fprintf(ptr noundef %8, ptr noundef nonnull @.str.14, ptr noundef %1) #13
  br label %84

10:                                               ; preds = %3
  %11 = call noalias ptr @fopen(ptr noundef %2, ptr noundef nonnull @.str.12)
  %12 = icmp eq ptr %11, null
  br i1 %12, label %13, label %17

13:                                               ; preds = %10
  %14 = load ptr, ptr @stderr, align 8, !tbaa !58
  %15 = call i32 (ptr, ptr, ...) @fprintf(ptr noundef %14, ptr noundef nonnull @.str.14, ptr noundef %2) #13
  %16 = call i32 @fclose(ptr noundef nonnull %5)
  br label %84

17:                                               ; preds = %10
  %18 = call ptr @jpeg_std_error(ptr noundef nonnull %4) #11
  store ptr %18, ptr %0, align 8, !tbaa !60
  store ptr @my_error_exit, ptr %4, align 8, !tbaa !76
  %19 = getelementptr inbounds nuw i8, ptr %4, i64 168
  %20 = call i32 @_setjmp(ptr noundef nonnull %19) #16
  %.not = icmp eq i32 %20, 0
  br i1 %.not, label %24, label %21

21:                                               ; preds = %17
  call void @jpeg_destroy_decompress(ptr noundef nonnull %0) #11
  %22 = call i32 @fclose(ptr noundef nonnull %5)
  %23 = call i32 @fclose(ptr noundef nonnull %11)
  br label %84

24:                                               ; preds = %17
  call void @jpeg_CreateDecompress(ptr noundef nonnull %0, i32 noundef 62, i64 noundef 632) #11
  call void @jpeg_stdio_src(ptr noundef nonnull %0, ptr noundef nonnull %5) #11
  %25 = call i32 @jpeg_read_header(ptr noundef nonnull %0, i32 noundef 1) #11
  %26 = getelementptr inbounds nuw i8, ptr %0, i64 48
  %27 = load i32, ptr %26, align 8, !tbaa !78
  %28 = getelementptr inbounds nuw i8, ptr %0, i64 52
  %29 = load i32, ptr %28, align 4, !tbaa !79
  %30 = getelementptr inbounds nuw i8, ptr %0, i64 296
  %31 = load i32, ptr %30, align 8, !tbaa !80
  %32 = icmp eq i32 %31, 12
  %33 = select i1 %32, i32 4095, i32 255
  %34 = call i32 (ptr, ptr, ...) @fprintf(ptr noundef nonnull %11, ptr noundef nonnull @.str.15, i32 noundef %27, i32 noundef %29, i32 noundef %33) #11
  %35 = call i32 @jpeg_start_decompress(ptr noundef nonnull %0) #11
  %36 = getelementptr inbounds nuw i8, ptr %0, i64 136
  %37 = load i32, ptr %36, align 8, !tbaa !81
  %38 = getelementptr inbounds nuw i8, ptr %0, i64 148
  %39 = load i32, ptr %38, align 4, !tbaa !82
  %40 = mul i32 %39, %37
  %.fr65 = freeze i32 %40
  %41 = load i32, ptr %30, align 8, !tbaa !80
  %42 = icmp eq i32 %41, 12
  %43 = getelementptr inbounds nuw i8, ptr %0, i64 8
  %44 = load ptr, ptr %43, align 8, !tbaa !83
  %45 = getelementptr inbounds nuw i8, ptr %44, i64 16
  %46 = load ptr, ptr %45, align 8, !tbaa !46
  %47 = call ptr %46(ptr noundef nonnull %0, i32 noundef 1, i32 noundef %.fr65, i32 noundef 1) #11
  %. = select i1 %42, ptr %47, ptr null
  %.71 = select i1 %42, ptr null, ptr %47
  %48 = load i32, ptr %30, align 8, !tbaa !80
  %49 = icmp eq i32 %48, 12
  %50 = getelementptr inbounds nuw i8, ptr %0, i64 168
  %51 = getelementptr inbounds nuw i8, ptr %0, i64 140
  %52 = load i32, ptr %50, align 8, !tbaa !84
  %53 = load i32, ptr %51, align 4, !tbaa !85
  %54 = icmp ult i32 %52, %53
  br i1 %49, label %.preheader, label %.preheader60

.preheader60:                                     ; preds = %24
  br i1 %54, label %.lr.ph, label %.loopexit

.lr.ph:                                           ; preds = %.preheader60
  %55 = sext i32 %.fr65 to i64
  br label %74

.preheader:                                       ; preds = %24
  br i1 %54, label %.lr.ph64, label %.loopexit

.lr.ph64:                                         ; preds = %.preheader
  %56 = icmp sgt i32 %.fr65, 0
  %57 = sext i32 %.fr65 to i64
  %58 = shl nsw i64 %57, 1
  br i1 %56, label %.lr.ph63.us.preheader, label %.lr.ph64.split

.lr.ph63.us.preheader:                            ; preds = %.lr.ph64
  %wide.trip.count = zext nneg i32 %.fr65 to i64
  br label %.lr.ph63.us

.lr.ph63.us:                                      ; preds = %.lr.ph63.us.preheader, %._crit_edge.us
  %59 = call i32 @jpeg12_read_scanlines(ptr noundef nonnull %0, ptr noundef %., i32 noundef 1) #11
  %60 = load ptr, ptr %., align 8, !tbaa !48
  br label %61

61:                                               ; preds = %.lr.ph63.us, %61
  %indvars.iv = phi i64 [ 0, %.lr.ph63.us ], [ %indvars.iv.next, %61 ]
  %62 = getelementptr inbounds nuw i16, ptr %60, i64 %indvars.iv
  %63 = load i16, ptr %62, align 2, !tbaa !50
  %rev.us = call i16 @llvm.bswap.i16(i16 %63)
  store i16 %rev.us, ptr %62, align 2, !tbaa !50
  %indvars.iv.next = add nuw nsw i64 %indvars.iv, 1
  %exitcond.not = icmp eq i64 %indvars.iv.next, %wide.trip.count
  br i1 %exitcond.not, label %._crit_edge.us, label %61, !llvm.loop !86

._crit_edge.us:                                   ; preds = %61
  %64 = call i64 @fwrite(ptr noundef nonnull %60, i64 noundef 1, i64 noundef %58, ptr noundef nonnull %11)
  %65 = load i32, ptr %50, align 8, !tbaa !84
  %66 = load i32, ptr %51, align 4, !tbaa !85
  %67 = icmp ult i32 %65, %66
  br i1 %67, label %.lr.ph63.us, label %.loopexit, !llvm.loop !87

.lr.ph64.split:                                   ; preds = %.lr.ph64, %.lr.ph64.split
  %68 = call i32 @jpeg12_read_scanlines(ptr noundef nonnull %0, ptr noundef %., i32 noundef 1) #11
  %69 = load ptr, ptr %., align 8, !tbaa !48
  %70 = call i64 @fwrite(ptr noundef %69, i64 noundef 1, i64 noundef %58, ptr noundef nonnull %11)
  %71 = load i32, ptr %50, align 8, !tbaa !84
  %72 = load i32, ptr %51, align 4, !tbaa !85
  %73 = icmp ult i32 %71, %72
  br i1 %73, label %.lr.ph64.split, label %.loopexit, !llvm.loop !87

74:                                               ; preds = %.lr.ph, %74
  %75 = call i32 @jpeg_read_scanlines(ptr noundef nonnull %0, ptr noundef %.71, i32 noundef 1) #11
  %76 = load ptr, ptr %.71, align 8, !tbaa !8
  %77 = call i64 @fwrite(ptr noundef %76, i64 noundef 1, i64 noundef %55, ptr noundef nonnull %11)
  %78 = load i32, ptr %50, align 8, !tbaa !84
  %79 = load i32, ptr %51, align 4, !tbaa !85
  %80 = icmp ult i32 %78, %79
  br i1 %80, label %74, label %.loopexit, !llvm.loop !88

.loopexit:                                        ; preds = %74, %.lr.ph64.split, %._crit_edge.us, %.preheader60, %.preheader
  %81 = call i32 @jpeg_finish_decompress(ptr noundef nonnull %0) #11
  call void @jpeg_destroy_decompress(ptr noundef nonnull %0) #11
  %82 = call i32 @fclose(ptr noundef nonnull %5)
  %83 = call i32 @fclose(ptr noundef nonnull %11)
  br label %84

84:                                               ; preds = %.loopexit, %21, %13, %7
  call void @llvm.lifetime.end.p0(i64 368, ptr nonnull %4) #11
  ret void
}